target datalayout = "e-m:e-p270:32:32-p271:32:32-p272:64:64-i64:64-i128:128-f80:128-n8:16:32:64-S128"
target triple = "x86_64-pc-linux-gnu"

%struct.Abc_Ntk_t_ = type { i32, i32, ptr, ptr, ptr, ptr, ptr, ptr, ptr, ptr, ptr, ptr, ptr, [11 x i32], i32, i32, i32, i32, ptr, i32, ptr, ptr, i32, i32, i32, double, i32, %struct.Vec_Int_t_, ptr, ptr, ptr, ptr, ptr, float, i32, ptr, ptr, ptr, ptr, ptr, ptr, ptr, ptr, ptr, ptr, ptr, ptr, ptr, ptr, ptr, ptr, ptr, ptr, ptr, ptr, ptr }
%struct.Vec_Int_t_ = type { i32, i32, ptr }
%struct.Abc_Obj_t_ = type { ptr, ptr, i32, i32, %struct.Vec_Int_t_, %struct.Vec_Int_t_, %union.anon, %union.anon.0 }
%union.anon = type { ptr }
%union.anon.0 = type { ptr }

; Function Attrs: nounwind uwtable
define internal void @Vec_IntWriteEntry(ptr noundef %0, i32 noundef %1, i32 noundef %2) #0 {
  %4 = alloca ptr, align 8
  %5 = alloca i32, align 4
  %6 = alloca i32, align 4
  store ptr %0, ptr %4, align 8
  store i32 %1, ptr %5, align 4
  store i32 %2, ptr %6, align 4
  %7 = load i32, ptr %6, align 4
  %8 = load ptr, ptr %4, align 8
  %9 = getelementptr inbounds %struct.Vec_Int_t_, ptr %8, i32 0, i32 2
  %10 = load ptr, ptr %9, align 8
  %11 = load i32, ptr %5, align 4
  %12 = sext i32 %11 to i64
  %13 = getelementptr inbounds i32, ptr %10, i64 %12
  store i32 %7, ptr %13, align 4
  ret void
}

; Function Attrs: nounwind uwtable
define void @Abc_ObjSetReverseLevel(ptr noundef %0, i32 noundef %1) #0 {
  %3 = alloca ptr, align 8
  %4 = alloca i32, align 4
  %5 = alloca ptr, align 8
  store ptr %0, ptr %3, align 8
  store i32 %1, ptr %4, align 4
  %6 = load ptr, ptr %3, align 8
  %7 = getelementptr inbounds %struct.Abc_Obj_t_, ptr %6, i32 0, i32 0
  %8 = load ptr, ptr %7, align 8
  store ptr %8, ptr %5, align 8
  %9 = load ptr, ptr %5, align 8
  %10 = getelementptr inbounds %struct.Abc_Ntk_t_, ptr %9, i32 0, i32 35
  %11 = load ptr, ptr %10, align 8
  %12 = load ptr, ptr %3, align 8
  %13 = getelementptr inbounds %struct.Abc_Obj_t_, ptr %12, i32 0, i32 2
  %14 = load i32, ptr %13, align 8
  %15 = add nsw i32 %14, 1
  call void @Vec_IntFillExtra(ptr noundef %11, i32 noundef %15, i32 noundef 0)
  %16 = load ptr, ptr %5, align 8
  %17 = getelementptr inbounds %struct.Abc_Ntk_t_, ptr %16, i32 0, i32 35
  %18 = load ptr, ptr %17, align 8
  %19 = load ptr, ptr %3, align 8
  %20 = getelementptr inbounds %struct.Abc_Obj_t_, ptr %19, i32 0, i32 2
  %21 = load i32, ptr %20, align 8
  %22 = load i32, ptr %4, align 4
  call void @Vec_IntWriteEntry(ptr noundef %18, i32 noundef %21, i32 noundef %22)
  ret void
}

; Function Attrs: nounwind uwtable
define void @Abc_NtkUpdate(ptr noundef %0, ptr noundef %1, ptr noundef %2) #0 {
  %4 = alloca ptr, align 8
  %5 = alloca ptr, align 8
  %6 = alloca ptr, align 8
  store ptr %0, ptr %4, align 8
  store ptr %1, ptr %5, align 8
  store ptr %2, ptr %6, align 8
  %7 = load ptr, ptr %4, align 8
  %8 = getelementptr inbounds %struct.Abc_Obj_t_, ptr %7, i32 0, i32 3
  %9 = load i32, ptr %8, align 4
  %10 = lshr i32 %9, 12
  %11 = load ptr, ptr %5, align 8
  %12 = getelementptr inbounds %struct.Abc_Obj_t_, ptr %11, i32 0, i32 3
  %13 = load i32, ptr %12, align 4
  %14 = and i32 %10, 1048575
  %15 = shl i32 %14, 12
  %16 = and i32 %13, 4095
  %17 = or i32 %16, %15
  store i32 %17, ptr %12, align 4
  %18 = load ptr, ptr %4, align 8
  %19 = load ptr, ptr %5, align 8
  call void @Abc_ObjReplace(ptr noundef %18, ptr noundef %19)
  %20 = load ptr, ptr %5, align 8
  %21 = load ptr, ptr %6, align 8
  call void @Abc_NtkUpdateLevel(ptr noundef %20, ptr noundef %21)
  %22 = load ptr, ptr %5, align 8
  call void @Abc_ObjSetReverseLevel(ptr noundef %22, i32 noundef 0)
  %23 = load ptr, ptr %5, align 8
  %24 = load ptr, ptr %6, align 8
  call void @Abc_NtkUpdateReverseLevel(ptr noundef %23, ptr noundef %24)
  ret void
}