; Function Attrs: nounwind uwtable
define void @Abc_NtkUpdate(ptr noundef %0, ptr noundef %1, ptr noundef captures(none) %2) local_unnamed_addr #3 {
  %4 = getelementptr inbounds nuw i8, ptr %0, i64 20
  %5 = load i32, ptr %4, align 4
  %6 = and i32 %5, -4096
  %7 = getelementptr inbounds nuw i8, ptr %1, i64 20
  %8 = load i32, ptr %7, align 4
  %9 = and i32 %8, 4095
  %10 = or disjoint i32 %9, %6
  store i32 %10, ptr %7, align 4
  tail call void @Abc_ObjReplace(ptr noundef %0, ptr noundef %1) #22
  tail call void @Abc_NtkUpdateLevel(ptr noundef %1, ptr noundef %2)
  %11 = load ptr, ptr %1, align 8
  %12 = getelementptr inbounds nuw i8, ptr %11, i64 288
  %13 = load ptr, ptr %12, align 8
  %14 = getelementptr inbounds nuw i8, ptr %1, i64 16
  %15 = load i32, ptr %14, align 8
  %16 = add nsw i32 %15, 1
  tail call fastcc void @Vec_IntFillExtra(ptr noundef %13, i32 noundef %16)
  %17 = load ptr, ptr %12, align 8
  %18 = load i32, ptr %14, align 8
  %19 = getelementptr i8, ptr %17, i64 8
  %.val.i = load ptr, ptr %19, align 8
  %20 = sext i32 %18 to i64
  %21 = getelementptr inbounds i32, ptr %.val.i, i64 %20
  store i32 0, ptr %21, align 4
  tail call void @Abc_NtkUpdateReverseLevel(ptr noundef nonnull %1, ptr noundef %2)
  ret void
}